target datalayout = "e-m:e-p270:32:32-p271:32:32-p272:64:64-i64:64-i128:128-f80:128-n8:16:32:64-S128"
target triple = "x86_64-pc-linux-gnu"

%struct.hb_ot_map_builder_t = type { ptr, %struct.hb_segment_properties_t, i8, [2 x i32], [2 x i8], [2 x i32], [2 x i32], [2 x i32], %struct.hb_vector_t.4, [2 x %struct.hb_vector_t.5] }
%struct.hb_segment_properties_t = type { i32, i32, ptr, ptr, ptr }
%struct.hb_vector_t.4 = type { i32, i32, ptr }
%struct.hb_vector_t.5 = type { i32, i32, ptr }

@_ZL10table_tags = internal constant [2 x i32] [i32 1196643650, i32 1196445523], align 4

; Function Attrs: mustprogress uwtable
define hidden noundef zeroext i1 @_ZN19hb_ot_map_builder_t11has_featureEj(ptr noundef nonnull align 8 dereferenceable(128) %0, i32 noundef %1) #0 align 2 {
  %3 = alloca i1, align 1
  %4 = alloca ptr, align 8
  %5 = alloca i32, align 4
  %6 = alloca i32, align 4
  store ptr %0, ptr %4, align 8
  store i32 %1, ptr %5, align 4
  %7 = load ptr, ptr %4, align 8
  store i32 0, ptr %6, align 4
  br label %8

8:                                                ; preds = %33, %2
  %9 = load i32, ptr %6, align 4
  %10 = icmp ult i32 %9, 2
  br i1 %10, label %11, label %36

11:                                               ; preds = %8
  %12 = getelementptr inbounds %struct.hb_ot_map_builder_t, ptr %7, i32 0, i32 0
  %13 = load ptr, ptr %12, align 8
  %14 = load i32, ptr %6, align 4
  %15 = zext i32 %14 to i64
  %16 = getelementptr inbounds [2 x i32], ptr @_ZL10table_tags, i64 0, i64 %15
  %17 = load i32, ptr %16, align 4
  %18 = getelementptr inbounds %struct.hb_ot_map_builder_t, ptr %7, i32 0, i32 5
  %19 = load i32, ptr %6, align 4
  %20 = zext i32 %19 to i64
  %21 = getelementptr inbounds [2 x i32], ptr %18, i64 0, i64 %20
  %22 = load i32, ptr %21, align 4
  %23 = getelementptr inbounds %struct.hb_ot_map_builder_t, ptr %7, i32 0, i32 6
  %24 = load i32, ptr %6, align 4
  %25 = zext i32 %24 to i64
  %26 = getelementptr inbounds [2 x i32], ptr %23, i64 0, i64 %25
  %27 = load i32, ptr %26, align 4
  %28 = load i32, ptr %5, align 4
  %29 = call i32 @hb_ot_layout_language_find_feature(ptr noundef %13, i32 noundef %17, i32 noundef %22, i32 noundef %27, i32 noundef %28, ptr noundef null)
  %30 = icmp ne i32 %29, 0
  br i1 %30, label %31, label %32

31:                                               ; preds = %11
  store i1 true, ptr %3, align 1
  br label %37

32:                                               ; preds = %11
  br label %33

33:                                               ; preds = %32
  %34 = load i32, ptr %6, align 4
  %35 = add i32 %34, 1
  store i32 %35, ptr %6, align 4
  br label %8, !llvm.loop !11

36:                                               ; preds = %8
  store i1 false, ptr %3, align 1
  br label %37

37:                                               ; preds = %36, %31
  %38 = load i1, ptr %3, align 1
  ret i1 %38
}