; Function Attrs: mustprogress uwtable
define hidden noundef zeroext i1 @_ZN19hb_ot_map_builder_t11has_featureEj(ptr nocapture noundef nonnull readonly align 8 dereferenceable(128) %0, i32 noundef %1) local_unnamed_addr #0 align 2 {
  %3 = getelementptr inbounds i8, ptr %0, i64 56
  %4 = getelementptr inbounds i8, ptr %0, i64 64
  br label %5

5:                                                ; preds = %5, %2
  %.not9 = phi i1 [ false, %2 ], [ true, %5 ]
  %indvars.iv = phi i64 [ 0, %2 ], [ 1, %5 ]
  %6 = load ptr, ptr %0, align 8
  %7 = getelementptr inbounds [2 x i32], ptr @_ZL10table_tags, i64 0, i64 %indvars.iv
  %8 = load i32, ptr %7, align 4
  %9 = getelementptr inbounds [2 x i32], ptr %3, i64 0, i64 %indvars.iv
  %10 = load i32, ptr %9, align 4
  %11 = getelementptr inbounds [2 x i32], ptr %4, i64 0, i64 %indvars.iv
  %12 = load i32, ptr %11, align 4
  %13 = tail call i32 @hb_ot_layout_language_find_feature(ptr noundef %6, i32 noundef %8, i32 noundef %10, i32 noundef %12, i32 noundef %1, ptr noundef null)
  %.not = icmp ne i32 %13, 0
  %or.cond.not = or i1 %.not9, %.not
  br i1 %or.cond.not, label %14, label %5, !llvm.loop !11

14:                                               ; preds = %5
  ret i1 %.not
}